; Function Attrs: mustprogress nounwind uwtable
define dso_local void @_ZN4node9inspector9TcpHolder12ReclaimUvBufEPK8uv_buf_tl(ptr noundef nonnull align 8 dereferenceable(288) %this, ptr nocapture noundef readonly %buf, i64 noundef %read) local_unnamed_addr #0 align 2 {
entry:
  %cmp = icmp sgt i64 %read, 0
  br i1 %cmp, label %if.then, label %if.end

if.then:                                          ; preds = %entry
  %buffer = getelementptr inbounds i8, ptr %this, i64 264
  %_M_finish.i = getelementptr inbounds i8, ptr %this, i64 272
  %0 = load ptr, ptr %_M_finish.i, align 8
  %1 = load ptr, ptr %buf, align 8
  %add.ptr = getelementptr inbounds i8, ptr %1, i64 %read
  %2 = load ptr, ptr %buffer, align 8
  %sub.ptr.lhs.cast.i.i = ptrtoint ptr %0 to i64
  %sub.ptr.rhs.cast.i.i = ptrtoint ptr %2 to i64
  %sub.ptr.sub.i.i = sub i64 %sub.ptr.lhs.cast.i.i, %sub.ptr.rhs.cast.i.i
  %add.ptr.i.i = getelementptr inbounds i8, ptr %2, i64 %sub.ptr.sub.i.i
  tail call void @_ZNSt6vectorIcSaIcEE15_M_range_insertIPcEEvN9__gnu_cxx17__normal_iteratorIS3_S1_EET_S7_St20forward_iterator_tag(ptr noundef nonnull align 8 dereferenceable(24) %buffer, ptr %add.ptr.i.i, ptr noundef %1, ptr noundef nonnull %add.ptr)
  br label %if.end

if.end:                                           ; preds = %if.then, %entry
  %3 = load ptr, ptr %buf, align 8
  %isnull = icmp eq ptr %3, null
  br i1 %isnull, label %delete.end, label %delete.notnull

delete.notnull:                                   ; preds = %if.end
  tail call void @_ZdaPv(ptr noundef nonnull %3) #22
  br label %delete.end

delete.end:                                       ; preds = %delete.notnull, %if.end
  ret void
}